target datalayout = "e-m:e-p270:32:32-p271:32:32-p272:64:64-i64:64-i128:128-f80:128-n8:16:32:64-S128"
target triple = "x86_64-pc-linux-gnu"

%struct.b2Filter = type { i64, i64, i32 }

; Function Attrs: nounwind uwtable
define hidden zeroext i1 @b2ShouldShapesCollide(ptr noundef byval(%struct.b2Filter) align 8 %0, ptr noundef byval(%struct.b2Filter) align 8 %1) #0 {
  %3 = alloca i1, align 1
  %4 = alloca i8, align 1
  %5 = getelementptr inbounds nuw %struct.b2Filter, ptr %0, i32 0, i32 2
  %6 = load i32, ptr %5, align 8, !tbaa !173
  %7 = getelementptr inbounds nuw %struct.b2Filter, ptr %1, i32 0, i32 2
  %8 = load i32, ptr %7, align 8, !tbaa !173
  %9 = icmp eq i32 %6, %8
  br i1 %9, label %10, label %18

10:                                               ; preds = %2
  %11 = getelementptr inbounds nuw %struct.b2Filter, ptr %0, i32 0, i32 2
  %12 = load i32, ptr %11, align 8, !tbaa !173
  %13 = icmp ne i32 %12, 0
  br i1 %13, label %14, label %18

14:                                               ; preds = %10
  %15 = getelementptr inbounds nuw %struct.b2Filter, ptr %0, i32 0, i32 2
  %16 = load i32, ptr %15, align 8, !tbaa !173
  %17 = icmp sgt i32 %16, 0
  store i1 %17, ptr %3, align 1
  br label %37

18:                                               ; preds = %10, %2
  call void @llvm.lifetime.start.p0(i64 1, ptr %4) #8
  %19 = getelementptr inbounds nuw %struct.b2Filter, ptr %0, i32 0, i32 1
  %20 = load i64, ptr %19, align 8, !tbaa !174
  %21 = getelementptr inbounds nuw %struct.b2Filter, ptr %1, i32 0, i32 0
  %22 = load i64, ptr %21, align 8, !tbaa !175
  %23 = and i64 %20, %22
  %24 = icmp ne i64 %23, 0
  br i1 %24, label %25, label %32

25:                                               ; preds = %18
  %26 = getelementptr inbounds nuw %struct.b2Filter, ptr %0, i32 0, i32 0
  %27 = load i64, ptr %26, align 8, !tbaa !175
  %28 = getelementptr inbounds nuw %struct.b2Filter, ptr %1, i32 0, i32 1
  %29 = load i64, ptr %28, align 8, !tbaa !174
  %30 = and i64 %27, %29
  %31 = icmp ne i64 %30, 0
  br label %32

32:                                               ; preds = %25, %18
  %33 = phi i1 [ false, %18 ], [ %31, %25 ]
  %34 = zext i1 %33 to i8
  store i8 %34, ptr %4, align 1, !tbaa !19
  %35 = load i8, ptr %4, align 1, !tbaa !19, !range !21, !noundef !22
  %36 = trunc i8 %35 to i1
  store i1 %36, ptr %3, align 1
  call void @llvm.lifetime.end.p0(i64 1, ptr %4) #8
  br label %37

37:                                               ; preds = %32, %14
  %38 = load i1, ptr %3, align 1
  ret i1 %38
}