; Function Attrs: mustprogress nofree norecurse nosync nounwind willreturn memory(argmem: read) uwtable
define hidden zeroext i1 @b2ShouldShapesCollide(ptr noundef readonly byval(%struct.b2Filter) align 8 captures(none) %0, ptr noundef readonly byval(%struct.b2Filter) align 8 captures(none) %1) local_unnamed_addr #8 {
  %3 = getelementptr inbounds nuw i8, ptr %0, i64 16
  %4 = load i32, ptr %3, align 8, !tbaa !144
  %5 = getelementptr inbounds nuw i8, ptr %1, i64 16
  %6 = load i32, ptr %5, align 8, !tbaa !144
  %7 = icmp eq i32 %4, %6
  %8 = icmp ne i32 %4, 0
  %or.cond = and i1 %8, %7
  br i1 %or.cond, label %9, label %11

9:                                                ; preds = %2
  %10 = icmp sgt i32 %4, 0
  br label %23

11:                                               ; preds = %2
  %12 = getelementptr inbounds nuw i8, ptr %0, i64 8
  %13 = load i64, ptr %12, align 8, !tbaa !145
  %14 = load i64, ptr %1, align 8, !tbaa !146
  %15 = and i64 %14, %13
  %16 = icmp ne i64 %15, 0
  %17 = load i64, ptr %0, align 8
  %18 = getelementptr inbounds nuw i8, ptr %1, i64 8
  %19 = load i64, ptr %18, align 8
  %20 = and i64 %19, %17
  %21 = icmp ne i64 %20, 0
  %22 = select i1 %16, i1 %21, i1 false
  br label %23

23:                                               ; preds = %11, %9
  %.0 = phi i1 [ %10, %9 ], [ %22, %11 ]
  ret i1 %.0
}